; Function Attrs: mustprogress nofree norecurse nosync nounwind willreturn memory(read, inaccessiblemem: none) uwtable
define hidden noundef i32 @_ZN12ConstantPool18cp_to_object_indexEi(ptr nocapture noundef nonnull readonly align 8 dereferenceable(68) %0, i32 noundef %1) local_unnamed_addr #7 align 2 {
  %3 = getelementptr inbounds i8, ptr %0, i64 16
  %4 = load ptr, ptr %3, align 8
  %5 = icmp eq ptr %4, null
  br i1 %5, label %_ZNK12ConstantPool13reference_mapEv.exit, label %6

6:                                                ; preds = %2
  %7 = getelementptr inbounds i8, ptr %4, i64 24
  %8 = load ptr, ptr %7, align 8
  br label %_ZNK12ConstantPool13reference_mapEv.exit

_ZNK12ConstantPool13reference_mapEv.exit:         ; preds = %2, %6
  %9 = phi ptr [ %8, %6 ], [ null, %2 ]
  %10 = trunc i32 %1 to i16
  %11 = load i32, ptr %9, align 4
  %12 = getelementptr inbounds i8, ptr %9, i64 4
  %13 = zext i32 %11 to i64
  %smin.i.i = tail call i32 @llvm.smin.i32(i32 %11, i32 0)
  %14 = add i32 %smin.i.i, -1
  br label %15

15:                                               ; preds = %18, %_ZNK12ConstantPool13reference_mapEv.exit
  %indvars.iv.i.i = phi i64 [ %indvars.iv.next.i.i, %18 ], [ %13, %_ZNK12ConstantPool13reference_mapEv.exit ]
  %16 = trunc nuw i64 %indvars.iv.i.i to i32
  %17 = icmp sgt i32 %16, 0
  br i1 %17, label %18, label %_ZN5ArrayItE4findERKt.exit

18:                                               ; preds = %15
  %indvars.iv.next.i.i = add nsw i64 %indvars.iv.i.i, -1
  %19 = and i64 %indvars.iv.next.i.i, 4294967295
  %20 = getelementptr inbounds i16, ptr %12, i64 %19
  %21 = load i16, ptr %20, align 2
  %.not.i.i = icmp eq i16 %21, %10
  br i1 %.not.i.i, label %.critedge.split.loop.exit5.i.i, label %15, !llvm.loop !16

.critedge.split.loop.exit5.i.i:                   ; preds = %18
  %indvars.le.i.i = trunc i64 %indvars.iv.next.i.i to i32
  br label %_ZN5ArrayItE4findERKt.exit

_ZN5ArrayItE4findERKt.exit:                       ; preds = %15, %.critedge.split.loop.exit5.i.i
  %.lcssa.i.i = phi i32 [ %indvars.le.i.i, %.critedge.split.loop.exit5.i.i ], [ %14, %15 ]
  %22 = tail call i32 @llvm.smax.i32(i32 %.lcssa.i.i, i32 -1)
  ret i32 %22
}